; Function Attrs: null_pointer_is_valid sspstrong uwtable
define internal fastcc void @glxVendorPrivate(ptr noundef %0, ptr noundef captures(none) %1, ptr noundef %2, i32 noundef %3, i32 noundef %4) unnamed_addr #1 {
  %6 = load i32, ptr @hf_x11_glx_VendorPrivate_vendor_code, align 4
  %7 = load i32, ptr %1, align 4
  %8 = tail call ptr @proto_tree_add_item(ptr noundef %2, i32 noundef %6, ptr noundef %0, i32 noundef %7, i32 noundef 4, i32 noundef %3)
  %9 = load i32, ptr %1, align 4
  %10 = add i32 %9, 4
  store i32 %10, ptr %1, align 4
  %11 = load i32, ptr @hf_x11_glx_VendorPrivate_context_tag, align 4
  %12 = tail call ptr @proto_tree_add_item(ptr noundef %2, i32 noundef %11, ptr noundef %0, i32 noundef %10, i32 noundef 4, i32 noundef %3)
  %13 = load i32, ptr %1, align 4
  %14 = add i32 %13, 4
  store i32 %14, ptr %1, align 4
  %15 = load i32, ptr @hf_x11_glx_VendorPrivate_data, align 4
  %16 = add i32 %4, -12
  %spec.store.select.i = tail call i32 @llvm.smax.i32(i32 %16, i32 1)
  %17 = tail call ptr @proto_tree_add_item(ptr noundef %2, i32 noundef %15, ptr noundef %0, i32 noundef %14, i32 noundef %spec.store.select.i, i32 noundef %3)
  %18 = load i32, ptr %1, align 4
  %19 = add i32 %18, %spec.store.select.i
  store i32 %19, ptr %1, align 4
  ret void
}